	.file	"asm-offsets.c"
# GNU C89 (Debian 6.3.0-18+deb9u1) version 6.3.0 20170516 (i686-linux-gnu)
#	compiled by GNU C version 6.3.0 20170516, GMP version 6.1.2, MPFR version 3.1.5, MPC version 1.0.3, isl version 0.15
# GGC heuristics: --param ggc-min-expand=100 --param ggc-min-heapsize=131072
# options passed:  -nostdinc -I ./arch/um/include
# -I ./arch/um/include/generated/uapi -I ./arch/um/include/generated
# -I ./include -I ./arch/um/include/uapi -I ./include/uapi
# -I ./include/generated/uapi -I ./arch/x86/um -I ./arch/x86/include
# -I ./arch/x86/include/uapi -I ./arch/x86/include/generated
# -I ./arch/x86/include/generated/uapi -I ./arch/um/include/shared
# -I ./arch/x86/um/shared -I ./arch/um/include/shared/skas
# -imultiarch i386-linux-gnu -D __KERNEL__ -D __arch_um__
# -D vmap=kernel_vmap -D in6addr_loopback=kernel_in6addr_loopback
# -D in6addr_any=kernel_in6addr_any -D strrchr=kernel_strrchr
# -D _LARGEFILE64_SOURCE -D errno=kernel_errno
# -D sigprocmask=kernel_sigprocmask -D mktime=kernel_mktime
# -D CC_HAVE_ASM_GOTO -D KBUILD_BASENAME="asm_offsets"
# -D KBUILD_MODNAME="asm_offsets"
# -isystem /usr/lib/gcc/i686-linux-gnu/6/include
# -include ./include/linux/kconfig.h -MD arch/um/kernel/.asm-offsets.s.d
# arch/um/kernel/asm-offsets.c -m32 -march=i686
# -mpreferred-stack-boundary=2 -auxbase-strip arch/um/kernel/asm-offsets.s
# -g -Os -Wall -Wundef -Wstrict-prototypes -Wno-trigraphs
# -Werror=implicit-function-declaration -Wno-format-security
# -Wno-frame-address -Wno-maybe-uninitialized -Wframe-larger-than=2048
# -Wno-unused-but-set-variable -Wunused-const-variable=0
# -Wdeclaration-after-statement -Wno-pointer-sign -Werror=implicit-int
# -Werror=strict-prototypes -Werror=date-time
# -Werror=incompatible-pointer-types -std=gnu90 -fno-strict-aliasing
# -fno-common -fno-PIE -funit-at-a-time -ffreestanding
# -fno-delete-null-pointer-checks -fno-stack-protector
# -fno-omit-frame-pointer -fno-optimize-sibling-calls
# -fno-var-tracking-assignments -fno-strict-overflow -fstack-check=no
# -fconserve-stack -fverbose-asm --param allow-store-data-races=0
# options enabled:  -faggressive-loop-optimizations -falign-labels
# -fasynchronous-unwind-tables -fauto-inc-dec -fbranch-count-reg
# -fcaller-saves -fchkp-check-incomplete-type -fchkp-check-read
# -fchkp-check-write -fchkp-instrument-calls -fchkp-narrow-bounds
# -fchkp-optimize -fchkp-store-bounds -fchkp-use-static-bounds
# -fchkp-use-static-const-bounds -fchkp-use-wrappers
# -fcombine-stack-adjustments -fcompare-elim -fcprop-registers
# -fcrossjumping -fcse-follow-jumps -fdefer-pop -fdevirtualize
# -fdevirtualize-speculatively -fdwarf2-cfi-asm -fearly-inlining
# -feliminate-unused-debug-types -fexpensive-optimizations
# -fforward-propagate -ffunction-cse -fgcse -fgcse-lm -fgnu-runtime
# -fgnu-unique -fguess-branch-probability -fhoist-adjacent-loads -fident
# -fif-conversion -fif-conversion2 -findirect-inlining -finline
# -finline-atomics -finline-functions -finline-functions-called-once
# -finline-small-functions -fipa-cp -fipa-cp-alignment -fipa-icf
# -fipa-icf-functions -fipa-icf-variables -fipa-profile -fipa-pure-const
# -fipa-ra -fipa-reference -fipa-sra -fira-hoist-pressure
# -fira-share-save-slots -fira-share-spill-slots
# -fisolate-erroneous-paths-dereference -fivopts -fkeep-static-consts
# -fleading-underscore -flifetime-dse -flra-remat -flto-odr-type-merging
# -fmath-errno -fmerge-constants -fmerge-debug-strings
# -fmove-loop-invariants -fpartial-inlining -fpcc-struct-return -fpeephole
# -fpeephole2 -fplt -fprefetch-loop-arrays -free -freorder-blocks
# -freorder-functions -frerun-cse-after-loop
# -fsched-critical-path-heuristic -fsched-dep-count-heuristic
# -fsched-group-heuristic -fsched-interblock -fsched-last-insn-heuristic
# -fsched-rank-heuristic -fsched-spec -fsched-spec-insn-heuristic
# -fsched-stalled-insns-dep -fschedule-fusion -fschedule-insns2
# -fsemantic-interposition -fshow-column -fshrink-wrap -fsigned-zeros
# -fsplit-ivs-in-unroller -fsplit-wide-types -fssa-backprop -fssa-phiopt
# -fstdarg-opt -fstrict-volatile-bitfields -fsync-libcalls -fthread-jumps
# -ftoplevel-reorder -ftrapping-math -ftree-bit-ccp -ftree-builtin-call-dce
# -ftree-ccp -ftree-ch -ftree-coalesce-vars -ftree-copy-prop -ftree-cselim
# -ftree-dce -ftree-dominator-opts -ftree-dse -ftree-forwprop -ftree-fre
# -ftree-loop-if-convert -ftree-loop-im -ftree-loop-ivcanon
# -ftree-loop-optimize -ftree-parallelize-loops= -ftree-phiprop -ftree-pre
# -ftree-pta -ftree-reassoc -ftree-scev-cprop -ftree-sink -ftree-slsr
# -ftree-sra -ftree-switch-conversion -ftree-tail-merge -ftree-ter
# -ftree-vrp -funit-at-a-time -funwind-tables -fvar-tracking -fverbose-asm
# -fzero-initialized-in-bss -m32 -m80387 -m96bit-long-double
# -maccumulate-outgoing-args -malign-stringops -mfancy-math-387
# -mfp-ret-in-387 -mglibc -mieee-fp -mlong-double-80 -mno-red-zone
# -mno-sse4 -mpush-args -msahf -mtls-direct-seg-refs -mvzeroupper

	.text
.Ltext0:
	.globl	foo
	.type	foo, @function
foo:
.LFB1338:
	.file 1 "./arch/x86/um/shared/sysdep/kernel-offsets.h"
	.loc 1 16 0
	.cfi_startproc
	pushl	%ebp	#
	.cfi_def_cfa_offset 8
	.cfi_offset 5, -8
	movl	%esp, %ebp	#,
	.cfi_def_cfa_register 5
	.file 2 "./arch/um/include/shared/common-offsets.h"
	.loc 2 3 0
#APP
# 3 "./arch/um/include/shared/common-offsets.h" 1
	
->KERNEL_MADV_REMOVE $9 MADV_REMOVE	#
# 0 "" 2
	.loc 2 5 0
# 5 "./arch/um/include/shared/common-offsets.h" 1
	
->UM_KERN_PAGE_SIZE $4096 PAGE_SIZE	#
# 0 "" 2
	.loc 2 6 0
# 6 "./arch/um/include/shared/common-offsets.h" 1
	
->UM_KERN_PAGE_MASK $-4096 PAGE_MASK	#
# 0 "" 2
	.loc 2 7 0
# 7 "./arch/um/include/shared/common-offsets.h" 1
	
->UM_KERN_PAGE_SHIFT $12 PAGE_SHIFT	#
# 0 "" 2
	.loc 2 8 0
# 8 "./arch/um/include/shared/common-offsets.h" 1
	
->UM_NSEC_PER_SEC $1000000000 NSEC_PER_SEC	#
# 0 "" 2
	.loc 2 10 0
# 10 "./arch/um/include/shared/common-offsets.h" 1
	
->UM_ELF_CLASS $1 ELF_CLASS	#
# 0 "" 2
	.loc 2 11 0
# 11 "./arch/um/include/shared/common-offsets.h" 1
	
->UM_ELFCLASS32 $1 ELFCLASS32	#
# 0 "" 2
	.loc 2 12 0
# 12 "./arch/um/include/shared/common-offsets.h" 1
	
->UM_ELFCLASS64 $2 ELFCLASS64	#
# 0 "" 2
	.loc 2 14 0
# 14 "./arch/um/include/shared/common-offsets.h" 1
	
->UM_NR_CPUS $1 NR_CPUS	#
# 0 "" 2
	.loc 2 16 0
# 16 "./arch/um/include/shared/common-offsets.h" 1
	
->UM_GFP_KERNEL $37748928 GFP_KERNEL	#
# 0 "" 2
	.loc 2 17 0
# 17 "./arch/um/include/shared/common-offsets.h" 1
	
->UM_GFP_ATOMIC $34078752 GFP_ATOMIC	#
# 0 "" 2
	.loc 2 20 0
# 20 "./arch/um/include/shared/common-offsets.h" 1
	
->crypto_tfm_ctx_offset $40 offsetof(struct crypto_tfm, __crt_ctx)	#
# 0 "" 2
	.loc 2 22 0
# 22 "./arch/um/include/shared/common-offsets.h" 1
	
->UM_THREAD_SIZE $8192 THREAD_SIZE	#
# 0 "" 2
	.loc 2 24 0
# 24 "./arch/um/include/shared/common-offsets.h" 1
	
->UM_HZ $100 HZ	#
# 0 "" 2
	.loc 2 26 0
# 26 "./arch/um/include/shared/common-offsets.h" 1
	
->UM_USEC_PER_SEC $1000000 USEC_PER_SEC	#
# 0 "" 2
	.loc 2 27 0
# 27 "./arch/um/include/shared/common-offsets.h" 1
	
->UM_NSEC_PER_SEC $1000000000 NSEC_PER_SEC	#
# 0 "" 2
	.loc 2 28 0
# 28 "./arch/um/include/shared/common-offsets.h" 1
	
->UM_NSEC_PER_USEC $1000 NSEC_PER_USEC	#
# 0 "" 2
	.loc 2 31 0
# 31 "./arch/um/include/shared/common-offsets.h" 1
	
->UML_CONFIG_PRINTK $1 CONFIG_PRINTK	#
# 0 "" 2
	.loc 2 34 0
# 34 "./arch/um/include/shared/common-offsets.h" 1
	
->UML_CONFIG_NO_HZ_COMMON $1 CONFIG_NO_HZ_COMMON	#
# 0 "" 2
	.loc 2 37 0
# 37 "./arch/um/include/shared/common-offsets.h" 1
	
->UML_CONFIG_UML_X86 $1 CONFIG_UML_X86	#
# 0 "" 2
	.loc 1 18 0
#NO_APP
	popl	%ebp	#
	.cfi_restore 5
	.cfi_def_cfa 4, 4
	ret
	.cfi_endproc
.LFE1338:
	.size	foo, .-foo
.Letext0:
	.file 3 "./include/uapi/asm-generic/int-ll64.h"
	.file 4 "./include/asm-generic/int-ll64.h"
	.file 5 "./include/uapi/asm-generic/posix_types.h"
	.file 6 "./include/linux/types.h"
	.file 7 "./include/linux/capability.h"
	.file 8 "./arch/x86/include/asm/alternative.h"
	.file 9 "./include/linux/init.h"
	.file 10 "./include/linux/printk.h"
	.file 11 "./include/linux/kernel.h"
	.file 12 "./include/linux/notifier.h"
	.file 13 "./include/linux/thread_info.h"
	.file 14 "./include/uapi/linux/time.h"
	.file 15 "./arch/um/include/asm/page.h"
	.file 16 "./include/linux/mm_types.h"
	.file 17 "./arch/x86/um/asm/segment.h"
	.file 18 "./arch/um/include/asm/thread_info.h"
	.file 19 "./include/linux/sched.h"
	.file 20 "./include/linux/spinlock_types_up.h"
	.file 21 "./include/linux/lockdep.h"
	.file 22 "./include/linux/spinlock_types.h"
	.file 23 "./include/linux/rwlock_types.h"
	.file 24 "./arch/x86/um/shared/sysdep/faultinfo_32.h"
	.file 25 "./arch/x86/include/uapi/asm/ldt.h"
	.file 26 "./arch/x86/um/asm/processor_32.h"
	.file 27 "./arch/x86/um/shared/sysdep/ptrace_32.h"
	.file 28 "./arch/x86/um/shared/sysdep/ptrace.h"
	.file 29 "./arch/um/include/asm/ptrace-generic.h"
	.file 30 "./arch/x86/um/shared/sysdep/archsetjmp_32.h"
	.file 31 "./arch/um/include/asm/processor-generic.h"
	.file 32 "./arch/x86/include/asm/atomic64_32.h"
	.file 33 "./include/asm-generic/atomic-long.h"
	.file 34 "./include/linux/seqlock.h"
	.file 35 "./include/linux/time.h"
	.file 36 "./include/linux/timex.h"
	.file 37 "./include/linux/jiffies.h"
	.file 38 "./include/linux/cpumask.h"
	.file 39 "./include/linux/wait.h"
	.file 40 "./include/linux/completion.h"
	.file 41 "./include/linux/ktime.h"
	.file 42 "./include/linux/timekeeping.h"
	.file 43 "./include/linux/rbtree.h"
	.file 44 "./include/linux/nodemask.h"
	.file 45 "./include/linux/rwsem-spinlock.h"
	.file 46 "./include/linux/workqueue.h"
	.file 47 "./arch/um/include/shared/skas/mm_id.h"
	.file 48 "./include/linux/mutex.h"
	.file 49 "./arch/x86/um/asm/mm_context.h"
	.file 50 "./arch/um/include/asm/mmu.h"
	.file 51 "./include/linux/uprobes.h"
	.file 52 "./include/asm-generic/cputime_jiffies.h"
	.file 53 "./include/linux/smp.h"
	.file 54 "./include/linux/highuid.h"
	.file 55 "./include/linux/uidgid.h"
	.file 56 "./include/linux/sem.h"
	.file 57 "./include/linux/shm.h"
	.file 58 "./arch/x86/include/asm/signal.h"
	.file 59 "./include/uapi/asm-generic/signal-defs.h"
	.file 60 "./include/uapi/asm-generic/siginfo.h"
	.file 61 "./include/linux/signal.h"
	.file 62 "./include/linux/pid.h"
	.file 63 "./include/linux/percpu.h"
	.file 64 "./include/linux/mmzone.h"
	.file 65 "./include/linux/seccomp.h"
	.file 66 "./include/linux/rtmutex.h"
	.file 67 "./include/uapi/linux/resource.h"
	.file 68 "./include/linux/timerqueue.h"
	.file 69 "./include/linux/timer.h"
	.file 70 "./include/linux/hrtimer.h"
	.file 71 "./include/linux/task_io_accounting.h"
	.file 72 "./include/linux/sysctl.h"
	.file 73 "./include/linux/assoc_array.h"
	.file 74 "./include/linux/key.h"
	.file 75 "./include/linux/cred.h"
	.file 76 "./include/linux/gfp.h"
	.file 77 "./include/linux/idr.h"
	.file 78 "./include/linux/percpu-refcount.h"
	.file 79 "./include/linux/rcu_sync.h"
	.file 80 "./include/linux/percpu-rwsem.h"
	.file 81 "./include/linux/cgroup-defs.h"
	.file 82 "./arch/um/include/shared/skas/skas.h"
	.file 83 "./arch/x86/um/asm/elf.h"
	.file 84 "./include/uapi/linux/elf.h"
	.file 85 "./include/linux/elf.h"
	.file 86 "./include/linux/slab.h"
	.file 87 "./arch/x86/include/asm/asm.h"
	.section	.note.GNU-stack,"",@progbits
